target datalayout = "e-m:e-p270:32:32-p271:32:32-p272:64:64-i64:64-i128:128-f80:128-n8:16:32:64-S128"
target triple = "x86_64-pc-linux-gnu"

%struct.anon = type { double, double, double, double, double, ptr }

; Function Attrs: nounwind uwtable
define internal i32 @Jac(double noundef %0, ptr noundef %1, ptr noundef %2, ptr noundef %3, ptr noundef %4, ptr noundef %5, ptr noundef %6, ptr noundef %7) #0 {
  %9 = alloca double, align 8
  %10 = alloca ptr, align 8
  %11 = alloca ptr, align 8
  %12 = alloca ptr, align 8
  %13 = alloca ptr, align 8
  %14 = alloca ptr, align 8
  %15 = alloca ptr, align 8
  %16 = alloca ptr, align 8
  %17 = alloca i64, align 8
  %18 = alloca i64, align 8
  %19 = alloca i64, align 8
  %20 = alloca ptr, align 8
  %21 = alloca double, align 8
  %22 = alloca double, align 8
  %23 = alloca double, align 8
  %24 = alloca ptr, align 8
  store double %0, ptr %9, align 8, !tbaa !18
  store ptr %1, ptr %10, align 8, !tbaa !4
  store ptr %2, ptr %11, align 8, !tbaa !4
  store ptr %3, ptr %12, align 8, !tbaa !10
  store ptr %4, ptr %13, align 8, !tbaa !9
  store ptr %5, ptr %14, align 8, !tbaa !4
  store ptr %6, ptr %15, align 8, !tbaa !4
  store ptr %7, ptr %16, align 8, !tbaa !4
  call void @llvm.lifetime.start.p0(i64 8, ptr %17) #6
  call void @llvm.lifetime.start.p0(i64 8, ptr %18) #6
  call void @llvm.lifetime.start.p0(i64 8, ptr %19) #6
  call void @llvm.lifetime.start.p0(i64 8, ptr %20) #6
  call void @llvm.lifetime.start.p0(i64 8, ptr %21) #6
  call void @llvm.lifetime.start.p0(i64 8, ptr %22) #6
  call void @llvm.lifetime.start.p0(i64 8, ptr %23) #6
  call void @llvm.lifetime.start.p0(i64 8, ptr %24) #6
  %25 = load ptr, ptr %13, align 8, !tbaa !9
  store ptr %25, ptr %24, align 8, !tbaa !9
  %26 = load ptr, ptr %24, align 8, !tbaa !9
  %27 = getelementptr inbounds nuw %struct.anon, ptr %26, i32 0, i32 2
  %28 = load double, ptr %27, align 8, !tbaa !26
  store double %28, ptr %21, align 8, !tbaa !18
  %29 = load ptr, ptr %24, align 8, !tbaa !9
  %30 = getelementptr inbounds nuw %struct.anon, ptr %29, i32 0, i32 3
  %31 = load double, ptr %30, align 8, !tbaa !27
  store double %31, ptr %22, align 8, !tbaa !18
  %32 = load ptr, ptr %24, align 8, !tbaa !9
  %33 = getelementptr inbounds nuw %struct.anon, ptr %32, i32 0, i32 4
  %34 = load double, ptr %33, align 8, !tbaa !28
  store double %34, ptr %23, align 8, !tbaa !18
  store i64 1, ptr %18, align 8, !tbaa !31
  br label %35

35:                                               ; preds = %113, %8
  %36 = load i64, ptr %18, align 8, !tbaa !31
  %37 = icmp sle i64 %36, 5
  br i1 %37, label %38, label %116

38:                                               ; preds = %35
  store i64 1, ptr %17, align 8, !tbaa !31
  br label %39

39:                                               ; preds = %109, %38
  %40 = load i64, ptr %17, align 8, !tbaa !31
  %41 = icmp sle i64 %40, 10
  br i1 %41, label %42, label %112

42:                                               ; preds = %39
  %43 = load i64, ptr %18, align 8, !tbaa !31
  %44 = sub nsw i64 %43, 1
  %45 = load i64, ptr %17, align 8, !tbaa !31
  %46 = sub nsw i64 %45, 1
  %47 = mul nsw i64 %46, 5
  %48 = add nsw i64 %44, %47
  store i64 %48, ptr %19, align 8, !tbaa !31
  %49 = load ptr, ptr %12, align 8, !tbaa !10
  %50 = load i64, ptr %19, align 8, !tbaa !31
  %51 = call ptr @SUNBandMatrix_Column(ptr noundef %49, i64 noundef %50)
  store ptr %51, ptr %20, align 8, !tbaa !35
  %52 = load double, ptr %23, align 8, !tbaa !18
  %53 = load double, ptr %21, align 8, !tbaa !18
  %54 = fadd double %52, %53
  %55 = fmul double -2.000000e+00, %54
  %56 = load ptr, ptr %20, align 8, !tbaa !35
  %57 = load i64, ptr %19, align 8, !tbaa !31
  %58 = load i64, ptr %19, align 8, !tbaa !31
  %59 = sub nsw i64 %57, %58
  %60 = getelementptr inbounds double, ptr %56, i64 %59
  store double %55, ptr %60, align 8, !tbaa !18
  %61 = load i64, ptr %17, align 8, !tbaa !31
  %62 = icmp ne i64 %61, 1
  br i1 %62, label %63, label %73

63:                                               ; preds = %42
  %64 = load double, ptr %21, align 8, !tbaa !18
  %65 = load double, ptr %22, align 8, !tbaa !18
  %66 = fadd double %64, %65
  %67 = load ptr, ptr %20, align 8, !tbaa !35
  %68 = load i64, ptr %19, align 8, !tbaa !31
  %69 = sub nsw i64 %68, 5
  %70 = load i64, ptr %19, align 8, !tbaa !31
  %71 = sub nsw i64 %69, %70
  %72 = getelementptr inbounds double, ptr %67, i64 %71
  store double %66, ptr %72, align 8, !tbaa !18
  br label %73

73:                                               ; preds = %63, %42
  %74 = load i64, ptr %17, align 8, !tbaa !31
  %75 = icmp ne i64 %74, 10
  br i1 %75, label %76, label %86

76:                                               ; preds = %73
  %77 = load double, ptr %21, align 8, !tbaa !18
  %78 = load double, ptr %22, align 8, !tbaa !18
  %79 = fsub double %77, %78
  %80 = load ptr, ptr %20, align 8, !tbaa !35
  %81 = load i64, ptr %19, align 8, !tbaa !31
  %82 = add nsw i64 %81, 5
  %83 = load i64, ptr %19, align 8, !tbaa !31
  %84 = sub nsw i64 %82, %83
  %85 = getelementptr inbounds double, ptr %80, i64 %84
  store double %79, ptr %85, align 8, !tbaa !18
  br label %86

86:                                               ; preds = %76, %73
  %87 = load i64, ptr %18, align 8, !tbaa !31
  %88 = icmp ne i64 %87, 1
  br i1 %88, label %89, label %97

89:                                               ; preds = %86
  %90 = load double, ptr %23, align 8, !tbaa !18
  %91 = load ptr, ptr %20, align 8, !tbaa !35
  %92 = load i64, ptr %19, align 8, !tbaa !31
  %93 = sub nsw i64 %92, 1
  %94 = load i64, ptr %19, align 8, !tbaa !31
  %95 = sub nsw i64 %93, %94
  %96 = getelementptr inbounds double, ptr %91, i64 %95
  store double %90, ptr %96, align 8, !tbaa !18
  br label %97

97:                                               ; preds = %89, %86
  %98 = load i64, ptr %18, align 8, !tbaa !31
  %99 = icmp ne i64 %98, 5
  br i1 %99, label %100, label %108

100:                                              ; preds = %97
  %101 = load double, ptr %23, align 8, !tbaa !18
  %102 = load ptr, ptr %20, align 8, !tbaa !35
  %103 = load i64, ptr %19, align 8, !tbaa !31
  %104 = add nsw i64 %103, 1
  %105 = load i64, ptr %19, align 8, !tbaa !31
  %106 = sub nsw i64 %104, %105
  %107 = getelementptr inbounds double, ptr %102, i64 %106
  store double %101, ptr %107, align 8, !tbaa !18
  br label %108

108:                                              ; preds = %100, %97
  br label %109

109:                                              ; preds = %108
  %110 = load i64, ptr %17, align 8, !tbaa !31
  %111 = add nsw i64 %110, 1
  store i64 %111, ptr %17, align 8, !tbaa !31
  br label %39

112:                                              ; preds = %39
  br label %113

113:                                              ; preds = %112
  %114 = load i64, ptr %18, align 8, !tbaa !31
  %115 = add nsw i64 %114, 1
  store i64 %115, ptr %18, align 8, !tbaa !31
  br label %35

116:                                              ; preds = %35
  call void @llvm.lifetime.end.p0(i64 8, ptr %24) #6
  call void @llvm.lifetime.end.p0(i64 8, ptr %23) #6
  call void @llvm.lifetime.end.p0(i64 8, ptr %22) #6
  call void @llvm.lifetime.end.p0(i64 8, ptr %21) #6
  call void @llvm.lifetime.end.p0(i64 8, ptr %20) #6
  call void @llvm.lifetime.end.p0(i64 8, ptr %19) #6
  call void @llvm.lifetime.end.p0(i64 8, ptr %18) #6
  call void @llvm.lifetime.end.p0(i64 8, ptr %17) #6
  ret i32 0
}