; Function Attrs: nounwind uwtable
define internal noundef i32 @Jac(double %0, ptr readnone captures(none) %1, ptr readnone captures(none) %2, ptr noundef %3, ptr noundef readonly captures(none) %4, ptr readnone captures(none) %5, ptr readnone captures(none) %6, ptr readnone captures(none) %7) #0 {
  %9 = getelementptr inbounds nuw i8, ptr %4, i64 16
  %10 = load double, ptr %9, align 8, !tbaa !16
  %11 = getelementptr inbounds nuw i8, ptr %4, i64 24
  %12 = load double, ptr %11, align 8, !tbaa !17
  %13 = getelementptr inbounds nuw i8, ptr %4, i64 32
  %14 = load double, ptr %13, align 8, !tbaa !18
  %15 = fadd double %10, %14
  %16 = fmul double %15, -2.000000e+00
  %17 = fadd double %10, %12
  %18 = fsub double %10, %12
  br label %.preheader

.preheader:                                       ; preds = %8, %.split.us
  %.03847 = phi i64 [ 1, %8 ], [ %52, %.split.us ]
  %19 = add nuw nsw i64 %.03847, -6
  switch i64 %.03847, label %.preheader.split.split [
    i64 1, label %.preheader.split.us
    i64 5, label %.preheader.split.split.us
  ]

.preheader.split.us:                              ; preds = %.preheader, %25
  %.043.us = phi i64 [ %28, %25 ], [ %.03847, %.preheader ]
  %20 = mul nuw nsw i64 %.043.us, 5
  %21 = add nsw i64 %19, %20
  %22 = tail call ptr @SUNBandMatrix_Column(ptr noundef %3, i64 noundef %21) #10
  store double %16, ptr %22, align 8, !tbaa !23
  %cond.us = icmp eq i64 %.043.us, 1
  br i1 %cond.us, label %25, label %23

23:                                               ; preds = %.preheader.split.us
  %24 = getelementptr inbounds i8, ptr %22, i64 -40
  store double %17, ptr %24, align 8, !tbaa !23
  %.not39.us = icmp eq i64 %.043.us, 10
  br i1 %.not39.us, label %.split.us.loopexit, label %25

25:                                               ; preds = %.preheader.split.us, %23
  %26 = getelementptr inbounds nuw i8, ptr %22, i64 40
  store double %18, ptr %26, align 8, !tbaa !23
  %27 = getelementptr inbounds nuw i8, ptr %22, i64 8
  store double %14, ptr %27, align 8, !tbaa !23
  %28 = add nuw nsw i64 %.043.us, 1
  br label %.preheader.split.us

.preheader.split.split.us:                        ; preds = %.preheader, %34
  %.043.us44 = phi i64 [ %37, %34 ], [ 1, %.preheader ]
  %29 = mul nuw nsw i64 %.043.us44, 5
  %30 = add nsw i64 %19, %29
  %31 = tail call ptr @SUNBandMatrix_Column(ptr noundef %3, i64 noundef %30) #10
  store double %16, ptr %31, align 8, !tbaa !23
  %cond.us45 = icmp eq i64 %.043.us44, 1
  br i1 %cond.us45, label %34, label %32

32:                                               ; preds = %.preheader.split.split.us
  %33 = getelementptr inbounds i8, ptr %31, i64 -40
  store double %17, ptr %33, align 8, !tbaa !23
  %.not39.us46 = icmp eq i64 %.043.us44, 10
  br i1 %.not39.us46, label %.split.us.loopexit48, label %34

34:                                               ; preds = %.preheader.split.split.us, %32
  %35 = getelementptr inbounds nuw i8, ptr %31, i64 40
  store double %18, ptr %35, align 8, !tbaa !23
  %36 = getelementptr inbounds i8, ptr %31, i64 -8
  store double %14, ptr %36, align 8, !tbaa !23
  %37 = add nuw nsw i64 %.043.us44, 1
  br label %.preheader.split.split.us

.preheader.split.split:                           ; preds = %.preheader, %43
  %.043 = phi i64 [ %47, %43 ], [ 1, %.preheader ]
  %38 = mul nuw nsw i64 %.043, 5
  %39 = add nsw i64 %19, %38
  %40 = tail call ptr @SUNBandMatrix_Column(ptr noundef %3, i64 noundef %39) #10
  store double %16, ptr %40, align 8, !tbaa !23
  %cond = icmp eq i64 %.043, 1
  br i1 %cond, label %43, label %41

41:                                               ; preds = %.preheader.split.split
  %42 = getelementptr inbounds i8, ptr %40, i64 -40
  store double %17, ptr %42, align 8, !tbaa !23
  %.not39 = icmp eq i64 %.043, 10
  br i1 %.not39, label %.split.us.loopexit49, label %43

43:                                               ; preds = %41, %.preheader.split.split
  %44 = getelementptr inbounds nuw i8, ptr %40, i64 40
  store double %18, ptr %44, align 8, !tbaa !23
  %45 = getelementptr inbounds i8, ptr %40, i64 -8
  store double %14, ptr %45, align 8, !tbaa !23
  %46 = getelementptr inbounds nuw i8, ptr %40, i64 8
  store double %14, ptr %46, align 8, !tbaa !23
  %47 = add nuw nsw i64 %.043, 1
  br label %.preheader.split.split

.split.us.loopexit:                               ; preds = %23
  %48 = getelementptr inbounds nuw i8, ptr %22, i64 8
  store double %14, ptr %48, align 8, !tbaa !23
  br label %.split.us

.split.us.loopexit48:                             ; preds = %32
  %49 = getelementptr inbounds i8, ptr %31, i64 -8
  store double %14, ptr %49, align 8, !tbaa !23
  br label %.split.us

.split.us.loopexit49:                             ; preds = %41
  %50 = getelementptr inbounds i8, ptr %40, i64 -8
  store double %14, ptr %50, align 8, !tbaa !23
  %51 = getelementptr inbounds nuw i8, ptr %40, i64 8
  store double %14, ptr %51, align 8, !tbaa !23
  br label %.split.us

.split.us:                                        ; preds = %.split.us.loopexit49, %.split.us.loopexit48, %.split.us.loopexit
  %52 = add nuw nsw i64 %.03847, 1
  %exitcond52.not = icmp eq i64 %52, 6
  br i1 %exitcond52.not, label %53, label %.preheader

53:                                               ; preds = %.split.us
  ret i32 0
}